; Function Attrs: mustprogress nofree norecurse nosync nounwind null_pointer_is_valid sspstrong willreturn memory(argmem: readwrite) uwtable
define internal noundef i32 @uint64_bitwise_and(ptr noundef writeonly captures(none) initializes((8, 16)) %0, ptr noundef readonly captures(none) %1, ptr noundef readonly captures(none) %2, ptr readnone captures(none) %3) #3 {
  %5 = getelementptr inbounds nuw i8, ptr %1, i64 8
  %6 = load i64, ptr %5, align 8
  %7 = getelementptr inbounds nuw i8, ptr %2, i64 8
  %8 = load i64, ptr %7, align 8
  %9 = and i64 %8, %6
  %10 = getelementptr inbounds nuw i8, ptr %0, i64 8
  store i64 %9, ptr %10, align 8
  ret i32 0
}